; Function Attrs: null_pointer_is_valid sspstrong uwtable
define hidden void @proto_register_tn3270() local_unnamed_addr #0 {
  %1 = tail call i32 @proto_register_protocol(ptr noundef nonnull @.str.650, ptr noundef nonnull @.str.651, ptr noundef nonnull @.str.652)
  store i32 %1, ptr @proto_tn3270, align 4
  %2 = tail call ptr @register_dissector(ptr noundef nonnull @.str.652, ptr noundef nonnull @dissect_tn3270, i32 noundef %1)
  %3 = load i32, ptr @proto_tn3270, align 4
  tail call void @proto_register_field_array(i32 noundef %3, ptr noundef nonnull @proto_register_tn3270.hf, i32 noundef 344)
  tail call void @proto_register_subtree_array(ptr noundef nonnull @proto_register_tn3270.ett, i32 noundef 18)
  %4 = load i32, ptr @proto_tn3270, align 4
  %5 = tail call ptr @expert_register_protocol(i32 noundef %4)
  tail call void @expert_register_field_array(ptr noundef %5, ptr noundef nonnull @proto_register_tn3270.ei, i32 noundef 3)
  ret void
}